; Function Attrs: nounwind uwtable
define void @png_set_text_compression_method(ptr noalias noundef %0, i32 noundef %1) local_unnamed_addr #0 {
  %3 = icmp eq ptr %0, null
  br i1 %3, label %8, label %4

4:                                                ; preds = %2
  %.not = icmp eq i32 %1, 8
  br i1 %.not, label %6, label %5

5:                                                ; preds = %4
  tail call void @png_warning(ptr noundef nonnull %0, ptr noundef nonnull @.str.12) #15
  br label %6

6:                                                ; preds = %5, %4
  %7 = getelementptr inbounds i8, ptr %0, i64 468
  store i32 %1, ptr %7, align 4
  br label %8

8:                                                ; preds = %2, %6
  ret void
}